target datalayout = "e-m:e-p270:32:32-p271:32:32-p272:64:64-i64:64-i128:128-f80:128-n8:16:32:64-S128"
target triple = "x86_64-pc-linux-gnu"

%struct.AVSHA512 = type { i8, i64, [128 x i8], [8 x i64] }

@.str = private unnamed_addr constant [2 x i8] c"\80\00", align 1
@.str.1 = private unnamed_addr constant [1 x i8] zeroinitializer, align 1

; Function Attrs: alwaysinline nounwind willreturn memory(none) uwtable
define internal i32 @av_bswap32(i32 noundef %0) #6 {
  %2 = alloca i32, align 4
  store i32 %0, ptr %2, align 4, !tbaa !9
  %3 = load i32, ptr %2, align 4, !tbaa !9
  %4 = shl i32 %3, 8
  %5 = and i32 %4, 65280
  %6 = load i32, ptr %2, align 4, !tbaa !9
  %7 = lshr i32 %6, 8
  %8 = and i32 %7, 255
  %9 = or i32 %5, %8
  %10 = shl i32 %9, 16
  %11 = load i32, ptr %2, align 4, !tbaa !9
  %12 = lshr i32 %11, 16
  %13 = shl i32 %12, 8
  %14 = and i32 %13, 65280
  %15 = load i32, ptr %2, align 4, !tbaa !9
  %16 = lshr i32 %15, 16
  %17 = lshr i32 %16, 8
  %18 = and i32 %17, 255
  %19 = or i32 %14, %18
  %20 = or i32 %10, %19
  ret i32 %20
}

; Function Attrs: nounwind uwtable
define void @av_sha512_update(ptr noundef %0, ptr noundef %1, i64 noundef %2) #0 {
  %4 = alloca ptr, align 8
  %5 = alloca ptr, align 8
  %6 = alloca i64, align 8
  %7 = alloca i32, align 4
  %8 = alloca i64, align 8
  %9 = alloca ptr, align 8
  store ptr %0, ptr %4, align 8, !tbaa !4
  store ptr %1, ptr %5, align 8, !tbaa !16
  store i64 %2, ptr %6, align 8, !tbaa !14
  call void @llvm.lifetime.start.p0(i64 4, ptr %7) #7
  call void @llvm.lifetime.start.p0(i64 8, ptr %8) #7
  %10 = load ptr, ptr %4, align 8, !tbaa !4
  %11 = getelementptr inbounds nuw %struct.AVSHA512, ptr %10, i32 0, i32 1
  %12 = load i64, ptr %11, align 8, !tbaa !15
  %13 = and i64 %12, 127
  %14 = trunc i64 %13 to i32
  store i32 %14, ptr %7, align 4, !tbaa !9
  %15 = load i64, ptr %6, align 8, !tbaa !14
  %16 = load ptr, ptr %4, align 8, !tbaa !4
  %17 = getelementptr inbounds nuw %struct.AVSHA512, ptr %16, i32 0, i32 1
  %18 = load i64, ptr %17, align 8, !tbaa !15
  %19 = add i64 %18, %15
  store i64 %19, ptr %17, align 8, !tbaa !15
  %20 = load i64, ptr %6, align 8, !tbaa !14
  %21 = load i32, ptr %7, align 4, !tbaa !9
  %22 = sub i32 128, %21
  %23 = zext i32 %22 to i64
  %24 = icmp uge i64 %20, %23
  br i1 %24, label %25, label %66

25:                                               ; preds = %3
  call void @llvm.lifetime.start.p0(i64 8, ptr %9) #7
  %26 = load ptr, ptr %4, align 8, !tbaa !4
  %27 = getelementptr inbounds nuw %struct.AVSHA512, ptr %26, i32 0, i32 2
  %28 = load i32, ptr %7, align 4, !tbaa !9
  %29 = zext i32 %28 to i64
  %30 = getelementptr inbounds nuw [128 x i8], ptr %27, i64 0, i64 %29
  %31 = load ptr, ptr %5, align 8, !tbaa !16
  %32 = load i32, ptr %7, align 4, !tbaa !9
  %33 = sub i32 128, %32
  %34 = zext i32 %33 to i64
  store i64 %34, ptr %8, align 8, !tbaa !14
  call void @llvm.memcpy.p0.p0.i64(ptr align 1 %30, ptr align 1 %31, i64 %34, i1 false)
  %35 = load ptr, ptr %4, align 8, !tbaa !4
  %36 = getelementptr inbounds nuw %struct.AVSHA512, ptr %35, i32 0, i32 3
  %37 = getelementptr inbounds [8 x i64], ptr %36, i64 0, i64 0
  %38 = load ptr, ptr %4, align 8, !tbaa !4
  %39 = getelementptr inbounds nuw %struct.AVSHA512, ptr %38, i32 0, i32 2
  %40 = getelementptr inbounds [128 x i8], ptr %39, i64 0, i64 0
  call void @sha512_transform(ptr noundef %37, ptr noundef %40)
  %41 = load i64, ptr %8, align 8, !tbaa !14
  %42 = load ptr, ptr %5, align 8, !tbaa !16
  %43 = getelementptr inbounds nuw i8, ptr %42, i64 %41
  store ptr %43, ptr %5, align 8, !tbaa !16
  %44 = load i64, ptr %8, align 8, !tbaa !14
  %45 = load i64, ptr %6, align 8, !tbaa !14
  %46 = sub i64 %45, %44
  store i64 %46, ptr %6, align 8, !tbaa !14
  %47 = load ptr, ptr %5, align 8, !tbaa !16
  %48 = load i64, ptr %6, align 8, !tbaa !14
  %49 = and i64 %48, -128
  %50 = getelementptr inbounds nuw i8, ptr %47, i64 %49
  store ptr %50, ptr %9, align 8, !tbaa !16
  %51 = load i64, ptr %6, align 8, !tbaa !14
  %52 = urem i64 %51, 128
  store i64 %52, ptr %6, align 8, !tbaa !14
  br label %53

53:                                               ; preds = %62, %25
  %54 = load ptr, ptr %5, align 8, !tbaa !16
  %55 = load ptr, ptr %9, align 8, !tbaa !16
  %56 = icmp ult ptr %54, %55
  br i1 %56, label %57, label %65

57:                                               ; preds = %53
  %58 = load ptr, ptr %4, align 8, !tbaa !4
  %59 = getelementptr inbounds nuw %struct.AVSHA512, ptr %58, i32 0, i32 3
  %60 = getelementptr inbounds [8 x i64], ptr %59, i64 0, i64 0
  %61 = load ptr, ptr %5, align 8, !tbaa !16
  call void @sha512_transform(ptr noundef %60, ptr noundef %61)
  br label %62

62:                                               ; preds = %57
  %63 = load ptr, ptr %5, align 8, !tbaa !16
  %64 = getelementptr inbounds i8, ptr %63, i64 128
  store ptr %64, ptr %5, align 8, !tbaa !16
  br label %53, !llvm.loop !18

65:                                               ; preds = %53
  store i32 0, ptr %7, align 4, !tbaa !9
  call void @llvm.lifetime.end.p0(i64 8, ptr %9) #7
  br label %66

66:                                               ; preds = %65, %3
  %67 = load ptr, ptr %4, align 8, !tbaa !4
  %68 = getelementptr inbounds nuw %struct.AVSHA512, ptr %67, i32 0, i32 2
  %69 = load i32, ptr %7, align 4, !tbaa !9
  %70 = zext i32 %69 to i64
  %71 = getelementptr inbounds nuw [128 x i8], ptr %68, i64 0, i64 %70
  %72 = load ptr, ptr %5, align 8, !tbaa !16
  %73 = load i64, ptr %6, align 8, !tbaa !14
  call void @llvm.memcpy.p0.p0.i64(ptr align 1 %71, ptr align 1 %72, i64 %73, i1 false)
  call void @llvm.lifetime.end.p0(i64 8, ptr %8) #7
  call void @llvm.lifetime.end.p0(i64 4, ptr %7) #7
  ret void
}

; Function Attrs: inlinehint nounwind willreturn memory(none) uwtable
define internal i64 @av_bswap64(i64 noundef %0) #5 {
  %2 = alloca i64, align 8
  store i64 %0, ptr %2, align 8, !tbaa !14
  %3 = load i64, ptr %2, align 8, !tbaa !14
  %4 = trunc i64 %3 to i32
  %5 = call i32 @av_bswap32(i32 noundef %4) #8
  %6 = zext i32 %5 to i64
  %7 = shl i64 %6, 32
  %8 = load i64, ptr %2, align 8, !tbaa !14
  %9 = lshr i64 %8, 32
  %10 = trunc i64 %9 to i32
  %11 = call i32 @av_bswap32(i32 noundef %10) #8
  %12 = zext i32 %11 to i64
  %13 = or i64 %7, %12
  ret i64 %13
}

; Function Attrs: nounwind uwtable
define void @av_sha512_final(ptr noundef %0, ptr noundef %1) #0 {
  %3 = alloca ptr, align 8
  %4 = alloca ptr, align 8
  %5 = alloca i64, align 8
  %6 = alloca i64, align 8
  store ptr %0, ptr %3, align 8, !tbaa !4
  store ptr %1, ptr %4, align 8, !tbaa !16
  call void @llvm.lifetime.start.p0(i64 8, ptr %5) #7
  store i64 0, ptr %5, align 8, !tbaa !14
  call void @llvm.lifetime.start.p0(i64 8, ptr %6) #7
  %7 = load ptr, ptr %3, align 8, !tbaa !4
  %8 = getelementptr inbounds nuw %struct.AVSHA512, ptr %7, i32 0, i32 1
  %9 = load i64, ptr %8, align 8, !tbaa !15
  %10 = shl i64 %9, 3
  %11 = call i64 @av_bswap64(i64 noundef %10) #8
  store i64 %11, ptr %6, align 8, !tbaa !14
  %12 = load ptr, ptr %3, align 8, !tbaa !4
  call void @av_sha512_update(ptr noundef %12, ptr noundef @.str, i64 noundef 1)
  br label %13

13:                                               ; preds = %19, %2
  %14 = load ptr, ptr %3, align 8, !tbaa !4
  %15 = getelementptr inbounds nuw %struct.AVSHA512, ptr %14, i32 0, i32 1
  %16 = load i64, ptr %15, align 8, !tbaa !15
  %17 = and i64 %16, 127
  %18 = icmp ne i64 %17, 112
  br i1 %18, label %19, label %21

19:                                               ; preds = %13
  %20 = load ptr, ptr %3, align 8, !tbaa !4
  call void @av_sha512_update(ptr noundef %20, ptr noundef @.str.1, i64 noundef 1)
  br label %13, !llvm.loop !23

21:                                               ; preds = %13
  %22 = load ptr, ptr %3, align 8, !tbaa !4
  call void @av_sha512_update(ptr noundef %22, ptr noundef %5, i64 noundef 8)
  %23 = load ptr, ptr %3, align 8, !tbaa !4
  call void @av_sha512_update(ptr noundef %23, ptr noundef %6, i64 noundef 8)
  store i64 0, ptr %5, align 8, !tbaa !14
  br label %24

24:                                               ; preds = %42, %21
  %25 = load i64, ptr %5, align 8, !tbaa !14
  %26 = load ptr, ptr %3, align 8, !tbaa !4
  %27 = getelementptr inbounds nuw %struct.AVSHA512, ptr %26, i32 0, i32 0
  %28 = load i8, ptr %27, align 8, !tbaa !11
  %29 = zext i8 %28 to i64
  %30 = icmp ult i64 %25, %29
  br i1 %30, label %31, label %45

31:                                               ; preds = %24
  %32 = load ptr, ptr %3, align 8, !tbaa !4
  %33 = getelementptr inbounds nuw %struct.AVSHA512, ptr %32, i32 0, i32 3
  %34 = load i64, ptr %5, align 8, !tbaa !14
  %35 = getelementptr inbounds nuw [8 x i64], ptr %33, i64 0, i64 %34
  %36 = load i64, ptr %35, align 8, !tbaa !14
  %37 = call i64 @av_bswap64(i64 noundef %36) #8
  %38 = load ptr, ptr %4, align 8, !tbaa !16
  %39 = load i64, ptr %5, align 8, !tbaa !14
  %40 = mul i64 %39, 8
  %41 = getelementptr inbounds nuw i8, ptr %38, i64 %40
  store i64 %37, ptr %41, align 1, !tbaa !22
  br label %42

42:                                               ; preds = %31
  %43 = load i64, ptr %5, align 8, !tbaa !14
  %44 = add i64 %43, 1
  store i64 %44, ptr %5, align 8, !tbaa !14
  br label %24, !llvm.loop !24

45:                                               ; preds = %24
  %46 = load ptr, ptr %3, align 8, !tbaa !4
  %47 = getelementptr inbounds nuw %struct.AVSHA512, ptr %46, i32 0, i32 0
  %48 = load i8, ptr %47, align 8, !tbaa !11
  %49 = zext i8 %48 to i32
  %50 = and i32 %49, 1
  %51 = icmp ne i32 %50, 0
  br i1 %51, label %52, label %65

52:                                               ; preds = %45
  %53 = load ptr, ptr %3, align 8, !tbaa !4
  %54 = getelementptr inbounds nuw %struct.AVSHA512, ptr %53, i32 0, i32 3
  %55 = load i64, ptr %5, align 8, !tbaa !14
  %56 = getelementptr inbounds nuw [8 x i64], ptr %54, i64 0, i64 %55
  %57 = load i64, ptr %56, align 8, !tbaa !14
  %58 = lshr i64 %57, 32
  %59 = trunc i64 %58 to i32
  %60 = call i32 @av_bswap32(i32 noundef %59) #8
  %61 = load ptr, ptr %4, align 8, !tbaa !16
  %62 = load i64, ptr %5, align 8, !tbaa !14
  %63 = mul i64 %62, 8
  %64 = getelementptr inbounds nuw i8, ptr %61, i64 %63
  store i32 %60, ptr %64, align 1, !tbaa !22
  br label %65

65:                                               ; preds = %52, %45
  call void @llvm.lifetime.end.p0(i64 8, ptr %6) #7
  call void @llvm.lifetime.end.p0(i64 8, ptr %5) #7
  ret void
}