; Function Attrs: nofree norecurse nosync nounwind memory(argmem: readwrite) uwtable
define void @av_sha512_final(ptr noundef captures(none) %0, ptr noundef writeonly captures(none) %1) local_unnamed_addr #3 {
  %3 = alloca i64, align 8
  call void @llvm.lifetime.start.p0(i64 8, ptr nonnull %3) #8
  %4 = getelementptr inbounds nuw i8, ptr %0, i64 8
  %5 = load i64, ptr %4, align 8, !tbaa !10
  %6 = shl i64 %5, 3
  %7 = tail call noundef i64 @llvm.bswap.i64(i64 %6)
  store i64 %7, ptr %3, align 8, !tbaa !9
  %8 = trunc i64 %5 to i32
  %9 = and i32 %8, 127
  %10 = add i64 %5, 1
  store i64 %10, ptr %4, align 8, !tbaa !10
  %.not.i.not = icmp eq i32 %9, 127
  br i1 %.not.i.not, label %11, label %av_sha512_update.exit

11:                                               ; preds = %2
  %12 = getelementptr inbounds nuw i8, ptr %0, i64 16
  %13 = and i64 %5, 127
  %14 = getelementptr inbounds nuw [128 x i8], ptr %12, i64 0, i64 %13
  store i8 -128, ptr %14, align 1
  %15 = getelementptr inbounds nuw i8, ptr %0, i64 144
  tail call fastcc void @sha512_transform(ptr noundef nonnull %15, ptr noundef nonnull %12)
  %.pre = load i64, ptr %4, align 8, !tbaa !10
  br label %av_sha512_update.exit

av_sha512_update.exit:                            ; preds = %11, %2
  %16 = phi i64 [ %10, %2 ], [ %.pre, %11 ]
  %.027.i = phi i32 [ %9, %2 ], [ 0, %11 ]
  %.026.i = phi i64 [ 1, %2 ], [ 0, %11 ]
  %.0.i = phi ptr [ @.str, %2 ], [ getelementptr inbounds nuw (i8, ptr @.str, i64 1), %11 ]
  %17 = getelementptr inbounds nuw i8, ptr %0, i64 16
  %18 = zext nneg i32 %.027.i to i64
  %19 = getelementptr inbounds nuw [128 x i8], ptr %17, i64 0, i64 %18
  tail call void @llvm.memcpy.p0.p0.i64(ptr nonnull align 1 %19, ptr nonnull align 1 %.0.i, i64 %.026.i, i1 false)
  %20 = and i64 %16, 127
  %.not38 = icmp eq i64 %20, 112
  br i1 %.not38, label %av_sha512_update.exit28, label %.lr.ph

.lr.ph:                                           ; preds = %av_sha512_update.exit
  %21 = getelementptr inbounds nuw i8, ptr %0, i64 144
  br label %22

22:                                               ; preds = %.lr.ph, %av_sha512_update.exit20
  %23 = phi i64 [ %20, %.lr.ph ], [ %33, %av_sha512_update.exit20 ]
  %24 = phi i64 [ %16, %.lr.ph ], [ %30, %av_sha512_update.exit20 ]
  %25 = trunc i64 %24 to i32
  %26 = and i32 %25, 127
  %27 = add i64 %24, 1
  store i64 %27, ptr %4, align 8, !tbaa !10
  %.not.i13.not = icmp eq i32 %26, 127
  br i1 %.not.i13.not, label %28, label %av_sha512_update.exit20

28:                                               ; preds = %22
  %29 = getelementptr inbounds nuw [128 x i8], ptr %17, i64 0, i64 %23
  store i8 0, ptr %29, align 1
  tail call fastcc void @sha512_transform(ptr noundef nonnull %21, ptr noundef nonnull %17)
  %.pre49 = load i64, ptr %4, align 8, !tbaa !10
  br label %av_sha512_update.exit20

av_sha512_update.exit20:                          ; preds = %28, %22
  %30 = phi i64 [ %27, %22 ], [ %.pre49, %28 ]
  %.027.i17 = phi i32 [ %26, %22 ], [ 0, %28 ]
  %.026.i18 = phi i64 [ 1, %22 ], [ 0, %28 ]
  %.0.i19 = phi ptr [ @.str.1, %22 ], [ getelementptr inbounds nuw (i8, ptr @.str.1, i64 1), %28 ]
  %31 = zext nneg i32 %.027.i17 to i64
  %32 = getelementptr inbounds nuw [128 x i8], ptr %17, i64 0, i64 %31
  tail call void @llvm.memcpy.p0.p0.i64(ptr nonnull align 1 %32, ptr nonnull align 1 %.0.i19, i64 %.026.i18, i1 false)
  %33 = and i64 %30, 127
  %.not = icmp eq i64 %33, 112
  br i1 %.not, label %av_sha512_update.exit28, label %22, !llvm.loop !14

av_sha512_update.exit28:                          ; preds = %av_sha512_update.exit20, %av_sha512_update.exit
  %.lcssa37 = phi i64 [ %16, %av_sha512_update.exit ], [ %30, %av_sha512_update.exit20 ]
  %34 = or disjoint i64 %.lcssa37, 8
  %35 = getelementptr inbounds nuw i8, ptr %0, i64 128
  store i64 0, ptr %35, align 1
  %36 = trunc i64 %34 to i32
  %37 = and i32 %36, 127
  %38 = add i64 %.lcssa37, 16
  store i64 %38, ptr %4, align 8, !tbaa !10
  %.not.i29 = icmp samesign ult i32 %37, 120
  br i1 %.not.i29, label %av_sha512_update.exit36, label %39

39:                                               ; preds = %av_sha512_update.exit28
  %40 = sub nuw nsw i32 128, %37
  %41 = zext nneg i32 %40 to i64
  %42 = and i64 %34, 127
  %43 = getelementptr inbounds nuw [128 x i8], ptr %17, i64 0, i64 %42
  call void @llvm.memcpy.p0.p0.i64(ptr noundef nonnull align 1 dereferenceable(1) %43, ptr noundef nonnull readonly align 8 dereferenceable(1) %3, i64 %41, i1 false)
  %44 = getelementptr inbounds nuw i8, ptr %0, i64 144
  tail call fastcc void @sha512_transform(ptr noundef nonnull %44, ptr noundef nonnull %17)
  %45 = getelementptr inbounds nuw i8, ptr %3, i64 %41
  %46 = sub nuw nsw i64 8, %41
  br label %av_sha512_update.exit36

av_sha512_update.exit36:                          ; preds = %39, %av_sha512_update.exit28
  %.027.i33 = phi i32 [ %37, %av_sha512_update.exit28 ], [ 0, %39 ]
  %.026.i34 = phi i64 [ 8, %av_sha512_update.exit28 ], [ %46, %39 ]
  %.0.i35 = phi ptr [ %3, %av_sha512_update.exit28 ], [ %45, %39 ]
  %47 = zext nneg i32 %.027.i33 to i64
  %48 = getelementptr inbounds nuw [128 x i8], ptr %17, i64 0, i64 %47
  call void @llvm.memcpy.p0.p0.i64(ptr nonnull align 1 %48, ptr align 1 %.0.i35, i64 %.026.i34, i1 false)
  %49 = load i8, ptr %0, align 8, !tbaa !4
  %.not45 = icmp eq i8 %49, 0
  br i1 %.not45, label %._crit_edge.thread, label %.lr.ph41

.lr.ph41:                                         ; preds = %av_sha512_update.exit36
  %50 = getelementptr inbounds nuw i8, ptr %0, i64 144
  br label %51

51:                                               ; preds = %.lr.ph41, %51
  %storemerge40 = phi i64 [ 0, %.lr.ph41 ], [ %57, %51 ]
  %52 = getelementptr inbounds nuw [8 x i64], ptr %50, i64 0, i64 %storemerge40
  %53 = load i64, ptr %52, align 8, !tbaa !9
  %54 = tail call noundef i64 @llvm.bswap.i64(i64 %53)
  %55 = shl nuw nsw i64 %storemerge40, 3
  %56 = getelementptr inbounds nuw i8, ptr %1, i64 %55
  store i64 %54, ptr %56, align 1, !tbaa !13
  %57 = add nuw nsw i64 %storemerge40, 1
  %58 = load i8, ptr %0, align 8, !tbaa !4
  %59 = zext i8 %58 to i64
  %60 = icmp samesign ult i64 %57, %59
  br i1 %60, label %51, label %._crit_edge, !llvm.loop !15

._crit_edge:                                      ; preds = %51
  %61 = and i8 %58, 1
  %62 = icmp eq i8 %61, 0
  br i1 %62, label %._crit_edge.thread, label %63

63:                                               ; preds = %._crit_edge
  %64 = getelementptr inbounds nuw i8, ptr %0, i64 144
  %65 = getelementptr inbounds nuw [8 x i64], ptr %64, i64 0, i64 %57
  %66 = load i64, ptr %65, align 8, !tbaa !9
  %67 = lshr i64 %66, 32
  %68 = trunc nuw i64 %67 to i32
  %69 = tail call i32 @llvm.bswap.i32(i32 %68)
  %70 = shl nuw nsw i64 %57, 3
  %71 = getelementptr inbounds nuw i8, ptr %1, i64 %70
  store i32 %69, ptr %71, align 1, !tbaa !13
  br label %._crit_edge.thread

._crit_edge.thread:                               ; preds = %av_sha512_update.exit36, %63, %._crit_edge
  call void @llvm.lifetime.end.p0(i64 8, ptr nonnull %3) #8
  ret void
}